; Function Attrs: mustprogress nofree norecurse nounwind willreturn memory(argmem: readwrite) uwtable
define dso_local noundef zeroext i1 @_ZN4absl12log_internal14LogEveryNState9ShouldLogEi(ptr noundef nonnull align 4 captures(none) dereferenceable(4) %0, i32 noundef %1) local_unnamed_addr #0 align 2 {
  %3 = icmp sgt i32 %1, 0
  br i1 %3, label %4, label %9

4:                                                ; preds = %2
  %5 = load atomic i32, ptr %0 monotonic, align 4
  %6 = add i32 %5, 1
  store atomic i32 %6, ptr %0 monotonic, align 4
  %7 = urem i32 %5, %1
  %8 = icmp eq i32 %7, 0
  br label %9

9:                                                ; preds = %4, %2
  %10 = phi i1 [ false, %2 ], [ %8, %4 ]
  ret i1 %10
}